target datalayout = "e-m:e-p270:32:32-p271:32:32-p272:64:64-i64:64-i128:128-f80:128-n8:16:32:64-S128"
target triple = "x86_64-pc-linux-gnu"

%struct.msghdr = type { ptr, i32, ptr, i64, ptr, i64, i32 }
%struct.iovec = type { ptr, i64 }
%union.SOCKETADDRESS = type { %struct.sockaddr_in6 }
%struct.sockaddr_in6 = type { i16, i16, i32, %struct.in6_addr, i32 }
%struct.in6_addr = type { %union.anon }
%union.anon = type { [4 x i32] }

@SCTP_NOTIFICATION_SIZE = internal global i32 148, align 4
@.str.17 = private unnamed_addr constant [26 x i8] c"Out of native heap space.\00", align 1

; Function Attrs: nounwind uwtable
define i32 @Java_sun_nio_ch_sctp_SctpChannelImpl_receive0(ptr noundef %0, ptr noundef %1, i32 noundef %2, ptr noundef %3, i64 noundef %4, i32 noundef %5, i8 noundef zeroext %6) #0 {
  %8 = alloca i32, align 4
  %9 = alloca ptr, align 8
  %10 = alloca ptr, align 8
  %11 = alloca i32, align 4
  %12 = alloca ptr, align 8
  %13 = alloca i64, align 8
  %14 = alloca i32, align 4
  %15 = alloca i8, align 1
  %16 = alloca %union.SOCKETADDRESS, align 4
  %17 = alloca i64, align 8
  %18 = alloca ptr, align 8
  %19 = alloca [1 x %struct.iovec], align 16
  %20 = alloca [1 x %struct.msghdr], align 16
  %21 = alloca [48 x i8], align 16
  %22 = alloca i32, align 4
  %23 = alloca ptr, align 8
  %24 = alloca ptr, align 8
  %25 = alloca i8, align 1
  %26 = alloca ptr, align 8
  %27 = alloca i32, align 4
  store ptr %0, ptr %9, align 8
  store ptr %1, ptr %10, align 8
  store i32 %2, ptr %11, align 4
  store ptr %3, ptr %12, align 8
  store i64 %4, ptr %13, align 8
  store i32 %5, ptr %14, align 4
  store i8 %6, ptr %15, align 1
  store i64 0, ptr %17, align 8
  %28 = load i64, ptr %13, align 8
  %29 = inttoptr i64 %28 to ptr
  store ptr %29, ptr %18, align 8
  %30 = load i8, ptr %15, align 1
  %31 = zext i8 %30 to i32
  %32 = icmp eq i32 %31, 1
  %33 = select i1 %32, i32 2, i32 0
  store i32 %33, ptr %22, align 4
  %34 = getelementptr inbounds [1 x %struct.msghdr], ptr %20, i64 0, i64 0
  call void @llvm.memset.p0.i64(ptr align 16 %34, i8 0, i64 56, i1 false)
  %35 = getelementptr inbounds [1 x %struct.msghdr], ptr %20, i64 0, i64 0
  %36 = getelementptr inbounds %struct.msghdr, ptr %35, i32 0, i32 0
  store ptr %16, ptr %36, align 16
  %37 = getelementptr inbounds [1 x %struct.msghdr], ptr %20, i64 0, i64 0
  %38 = getelementptr inbounds %struct.msghdr, ptr %37, i32 0, i32 1
  store i32 28, ptr %38, align 8
  %39 = load ptr, ptr %18, align 8
  %40 = getelementptr inbounds [1 x %struct.iovec], ptr %19, i64 0, i64 0
  %41 = getelementptr inbounds %struct.iovec, ptr %40, i32 0, i32 0
  store ptr %39, ptr %41, align 16
  %42 = load i32, ptr %14, align 4
  %43 = sext i32 %42 to i64
  %44 = getelementptr inbounds [1 x %struct.iovec], ptr %19, i64 0, i64 0
  %45 = getelementptr inbounds %struct.iovec, ptr %44, i32 0, i32 1
  store i64 %43, ptr %45, align 8
  %46 = getelementptr inbounds [1 x %struct.iovec], ptr %19, i64 0, i64 0
  %47 = getelementptr inbounds [1 x %struct.msghdr], ptr %20, i64 0, i64 0
  %48 = getelementptr inbounds %struct.msghdr, ptr %47, i32 0, i32 2
  store ptr %46, ptr %48, align 16
  %49 = getelementptr inbounds [1 x %struct.msghdr], ptr %20, i64 0, i64 0
  %50 = getelementptr inbounds %struct.msghdr, ptr %49, i32 0, i32 3
  store i64 1, ptr %50, align 8
  %51 = getelementptr inbounds [48 x i8], ptr %21, i64 0, i64 0
  %52 = getelementptr inbounds [1 x %struct.msghdr], ptr %20, i64 0, i64 0
  %53 = getelementptr inbounds %struct.msghdr, ptr %52, i32 0, i32 4
  store ptr %51, ptr %53, align 16
  %54 = getelementptr inbounds [1 x %struct.msghdr], ptr %20, i64 0, i64 0
  %55 = getelementptr inbounds %struct.msghdr, ptr %54, i32 0, i32 5
  store i64 48, ptr %55, align 8
  %56 = getelementptr inbounds [1 x %struct.msghdr], ptr %20, i64 0, i64 0
  %57 = getelementptr inbounds %struct.msghdr, ptr %56, i32 0, i32 6
  store i32 0, ptr %57, align 16
  br label %58

58:                                               ; preds = %194, %7
  %59 = load i32, ptr %11, align 4
  %60 = getelementptr inbounds [1 x %struct.msghdr], ptr %20, i64 0, i64 0
  %61 = load i32, ptr %22, align 4
  %62 = call i64 @recvmsg(i32 noundef %59, ptr noundef %60, i32 noundef %61)
  store i64 %62, ptr %17, align 8
  %63 = icmp slt i64 %62, 0
  br i1 %63, label %64, label %93

64:                                               ; preds = %58
  %65 = call ptr @__errno_location() #7
  %66 = load i32, ptr %65, align 4
  %67 = icmp eq i32 %66, 11
  br i1 %67, label %72, label %68

68:                                               ; preds = %64
  %69 = call ptr @__errno_location() #7
  %70 = load i32, ptr %69, align 4
  %71 = icmp eq i32 %70, 11
  br i1 %71, label %72, label %73

72:                                               ; preds = %68, %64
  store i32 -2, ptr %8, align 4
  br label %213

73:                                               ; preds = %68
  %74 = call ptr @__errno_location() #7
  %75 = load i32, ptr %74, align 4
  %76 = icmp eq i32 %75, 4
  br i1 %76, label %77, label %78

77:                                               ; preds = %73
  store i32 -3, ptr %8, align 4
  br label %213

78:                                               ; preds = %73
  %79 = call ptr @__errno_location() #7
  %80 = load i32, ptr %79, align 4
  %81 = icmp eq i32 %80, 107
  br i1 %81, label %82, label %85

82:                                               ; preds = %78
  store i64 0, ptr %17, align 8
  %83 = getelementptr inbounds [1 x %struct.msghdr], ptr %20, i64 0, i64 0
  %84 = getelementptr inbounds %struct.msghdr, ptr %83, i32 0, i32 5
  store i64 0, ptr %84, align 8
  br label %90

85:                                               ; preds = %78
  %86 = load ptr, ptr %9, align 8
  %87 = call ptr @__errno_location() #7
  %88 = load i32, ptr %87, align 4
  %89 = call i32 @sctpHandleSocketError(ptr noundef %86, i32 noundef %88)
  store i32 0, ptr %8, align 4
  br label %213

90:                                               ; preds = %82
  br label %91

91:                                               ; preds = %90
  br label %92

92:                                               ; preds = %91
  br label %93

93:                                               ; preds = %92, %58
  %94 = getelementptr inbounds [1 x %struct.msghdr], ptr %20, i64 0, i64 0
  %95 = getelementptr inbounds %struct.msghdr, ptr %94, i32 0, i32 6
  %96 = load i32, ptr %95, align 16
  %97 = and i32 %96, 32768
  %98 = icmp ne i32 %97, 0
  br i1 %98, label %99, label %193

99:                                               ; preds = %93
  %100 = load ptr, ptr %18, align 8
  store ptr %100, ptr %23, align 8
  store i8 0, ptr %25, align 1
  %101 = getelementptr inbounds [1 x %struct.msghdr], ptr %20, i64 0, i64 0
  %102 = getelementptr inbounds %struct.msghdr, ptr %101, i32 0, i32 6
  %103 = load i32, ptr %102, align 16
  %104 = and i32 %103, 128
  %105 = icmp ne i32 %104, 0
  br i1 %105, label %151, label %106

106:                                              ; preds = %99
  %107 = load i32, ptr %14, align 4
  %108 = load i32, ptr @SCTP_NOTIFICATION_SIZE, align 4
  %109 = icmp slt i32 %107, %108
  br i1 %109, label %110, label %151

110:                                              ; preds = %106
  %111 = load i64, ptr %17, align 8
  %112 = trunc i64 %111 to i32
  store i32 %112, ptr %27, align 4
  %113 = load i32, ptr @SCTP_NOTIFICATION_SIZE, align 4
  %114 = sext i32 %113 to i64
  %115 = call noalias ptr @malloc(i64 noundef %114) #9
  store ptr %115, ptr %26, align 8
  %116 = icmp eq ptr %115, null
  br i1 %116, label %117, label %119

117:                                              ; preds = %110
  %118 = load ptr, ptr %9, align 8
  call void @JNU_ThrowOutOfMemoryError(ptr noundef %118, ptr noundef @.str.17)
  store i32 -1, ptr %8, align 4
  br label %213

119:                                              ; preds = %110
  store i8 1, ptr %25, align 1
  %120 = load ptr, ptr %26, align 8
  %121 = load ptr, ptr %18, align 8
  %122 = load i64, ptr %17, align 8
  call void @llvm.memcpy.p0.p0.i64(ptr align 1 %120, ptr align 8 %121, i64 %122, i1 false)
  %123 = load ptr, ptr %26, align 8
  %124 = load i64, ptr %17, align 8
  %125 = getelementptr inbounds i8, ptr %123, i64 %124
  %126 = getelementptr inbounds [1 x %struct.iovec], ptr %19, i64 0, i64 0
  %127 = getelementptr inbounds %struct.iovec, ptr %126, i32 0, i32 0
  store ptr %125, ptr %127, align 16
  %128 = load i32, ptr @SCTP_NOTIFICATION_SIZE, align 4
  %129 = sext i32 %128 to i64
  %130 = load i64, ptr %17, align 8
  %131 = sub nsw i64 %129, %130
  %132 = getelementptr inbounds [1 x %struct.iovec], ptr %19, i64 0, i64 0
  %133 = getelementptr inbounds %struct.iovec, ptr %132, i32 0, i32 1
  store i64 %131, ptr %133, align 8
  %134 = load i32, ptr %11, align 4
  %135 = getelementptr inbounds [1 x %struct.msghdr], ptr %20, i64 0, i64 0
  %136 = load i32, ptr %22, align 4
  %137 = call i64 @recvmsg(i32 noundef %134, ptr noundef %135, i32 noundef %136)
  store i64 %137, ptr %17, align 8
  %138 = icmp slt i64 %137, 0
  br i1 %138, label %139, label %145

139:                                              ; preds = %119
  %140 = load ptr, ptr %9, align 8
  %141 = call ptr @__errno_location() #7
  %142 = load i32, ptr %141, align 4
  %143 = call i32 @sctpHandleSocketError(ptr noundef %140, i32 noundef %142)
  %144 = load ptr, ptr %26, align 8
  call void @free(ptr noundef %144) #8
  store i32 0, ptr %8, align 4
  br label %213

145:                                              ; preds = %119
  %146 = load ptr, ptr %26, align 8
  store ptr %146, ptr %23, align 8
  %147 = load i32, ptr %27, align 4
  %148 = sext i32 %147 to i64
  %149 = load i64, ptr %17, align 8
  %150 = add nsw i64 %149, %148
  store i64 %150, ptr %17, align 8
  br label %151

151:                                              ; preds = %145, %106, %99
  %152 = load ptr, ptr %23, align 8
  store ptr %152, ptr %24, align 8
  %153 = load ptr, ptr %9, align 8
  %154 = load i32, ptr %11, align 4
  %155 = load ptr, ptr %12, align 8
  %156 = load ptr, ptr %24, align 8
  %157 = load i64, ptr %17, align 8
  %158 = trunc i64 %157 to i32
  %159 = getelementptr inbounds [1 x %struct.msghdr], ptr %20, i64 0, i64 0
  %160 = getelementptr inbounds %struct.msghdr, ptr %159, i32 0, i32 6
  %161 = load i32, ptr %160, align 16
  %162 = and i32 %161, 128
  %163 = trunc i32 %162 to i8
  %164 = call zeroext i8 @handleNotification(ptr noundef %153, i32 noundef %154, ptr noundef %155, ptr noundef %156, i32 noundef %158, i8 noundef zeroext %163, ptr noundef %16)
  %165 = zext i8 %164 to i32
  %166 = icmp eq i32 %165, 1
  br i1 %166, label %167, label %174

167:                                              ; preds = %151
  %168 = load i8, ptr %25, align 1
  %169 = zext i8 %168 to i32
  %170 = icmp eq i32 %169, 1
  br i1 %170, label %171, label %173

171:                                              ; preds = %167
  %172 = load ptr, ptr %23, align 8
  call void @free(ptr noundef %172) #8
  br label %173

173:                                              ; preds = %171, %167
  store i32 0, ptr %8, align 4
  br label %213

174:                                              ; preds = %151
  %175 = load i8, ptr %25, align 1
  %176 = zext i8 %175 to i32
  %177 = icmp eq i32 %176, 1
  br i1 %177, label %178, label %180

178:                                              ; preds = %174
  %179 = load ptr, ptr %23, align 8
  call void @free(ptr noundef %179) #8
  br label %180

180:                                              ; preds = %178, %174
  %181 = load ptr, ptr %18, align 8
  %182 = getelementptr inbounds [1 x %struct.iovec], ptr %19, i64 0, i64 0
  %183 = getelementptr inbounds %struct.iovec, ptr %182, i32 0, i32 0
  store ptr %181, ptr %183, align 16
  %184 = load i32, ptr %14, align 4
  %185 = sext i32 %184 to i64
  %186 = getelementptr inbounds [1 x %struct.iovec], ptr %19, i64 0, i64 0
  %187 = getelementptr inbounds %struct.iovec, ptr %186, i32 0, i32 1
  store i64 %185, ptr %187, align 8
  %188 = getelementptr inbounds [48 x i8], ptr %21, i64 0, i64 0
  %189 = getelementptr inbounds [1 x %struct.msghdr], ptr %20, i64 0, i64 0
  %190 = getelementptr inbounds %struct.msghdr, ptr %189, i32 0, i32 4
  store ptr %188, ptr %190, align 16
  %191 = getelementptr inbounds [1 x %struct.msghdr], ptr %20, i64 0, i64 0
  %192 = getelementptr inbounds %struct.msghdr, ptr %191, i32 0, i32 5
  store i64 48, ptr %192, align 8
  br label %193

193:                                              ; preds = %180, %93
  br label %194

194:                                              ; preds = %193
  %195 = getelementptr inbounds [1 x %struct.msghdr], ptr %20, i64 0, i64 0
  %196 = getelementptr inbounds %struct.msghdr, ptr %195, i32 0, i32 6
  %197 = load i32, ptr %196, align 16
  %198 = and i32 %197, 32768
  %199 = icmp ne i32 %198, 0
  br i1 %199, label %58, label %200, !llvm.loop !8

200:                                              ; preds = %194
  %201 = load ptr, ptr %9, align 8
  %202 = load ptr, ptr %12, align 8
  %203 = getelementptr inbounds [1 x %struct.msghdr], ptr %20, i64 0, i64 0
  %204 = load i64, ptr %17, align 8
  %205 = trunc i64 %204 to i32
  %206 = getelementptr inbounds [1 x %struct.msghdr], ptr %20, i64 0, i64 0
  %207 = getelementptr inbounds %struct.msghdr, ptr %206, i32 0, i32 6
  %208 = load i32, ptr %207, align 16
  %209 = and i32 %208, 128
  %210 = trunc i32 %209 to i8
  call void @handleMessage(ptr noundef %201, ptr noundef %202, ptr noundef %203, i32 noundef %205, i8 noundef zeroext %210, ptr noundef %16)
  %211 = load i64, ptr %17, align 8
  %212 = trunc i64 %211 to i32
  store i32 %212, ptr %8, align 4
  br label %213

213:                                              ; preds = %200, %173, %139, %117, %85, %77, %72
  %214 = load i32, ptr %8, align 4
  ret i32 %214
}