; Function Attrs: nounwind uwtable
define noundef i32 @Java_sun_nio_ch_sctp_SctpChannelImpl_receive0(ptr noundef %0, ptr nocapture noundef readnone %1, i32 noundef %2, ptr noundef %3, i64 noundef %4, i32 noundef %5, i8 noundef zeroext %6) local_unnamed_addr #0 {
  %8 = alloca %union.SOCKETADDRESS, align 4
  %9 = alloca [1 x %struct.iovec], align 16
  %10 = alloca [1 x %struct.msghdr], align 16
  %11 = alloca [48 x i8], align 16
  %12 = inttoptr i64 %4 to ptr
  %13 = icmp eq i8 %6, 1
  %14 = select i1 %13, i32 2, i32 0
  call void @llvm.memset.p0.i64(ptr noundef nonnull align 16 dereferenceable(56) %10, i8 0, i64 56, i1 false)
  store ptr %8, ptr %10, align 16
  %15 = getelementptr inbounds i8, ptr %10, i64 8
  store i32 28, ptr %15, align 8
  store ptr %12, ptr %9, align 16
  %16 = sext i32 %5 to i64
  %17 = getelementptr inbounds i8, ptr %9, i64 8
  store i64 %16, ptr %17, align 8
  %18 = getelementptr inbounds i8, ptr %10, i64 16
  store ptr %9, ptr %18, align 16
  %19 = getelementptr inbounds i8, ptr %10, i64 24
  store i64 1, ptr %19, align 8
  %20 = getelementptr inbounds i8, ptr %10, i64 32
  store ptr %11, ptr %20, align 16
  %21 = getelementptr inbounds i8, ptr %10, i64 40
  store i64 48, ptr %21, align 8
  %22 = getelementptr inbounds i8, ptr %10, i64 48
  %23 = icmp slt i32 %5, 148
  br i1 %23, label %.split, label %.split.us

.split.us:                                        ; preds = %7, %37
  %24 = call i64 @recvmsg(i32 noundef %2, ptr noundef nonnull %10, i32 noundef %14) #11
  %25 = icmp slt i64 %24, 0
  br i1 %25, label %26, label %30

26:                                               ; preds = %.split.us
  %27 = tail call ptr @__errno_location() #12
  %28 = load i32, ptr %27, align 4
  switch i32 %28, label %.split59.us [
    i32 11, label %.split61.us.loopexit135
    i32 4, label %.split61.us
    i32 107, label %29
  ]

29:                                               ; preds = %26
  store i64 0, ptr %21, align 8
  br label %30

30:                                               ; preds = %29, %.split.us
  %.040.us = phi i64 [ 0, %29 ], [ %24, %.split.us ]
  %31 = load i32, ptr %22, align 16
  %32 = and i32 %31, 32768
  %.not.us = icmp eq i32 %32, 0
  br i1 %.not.us, label %37, label %33

33:                                               ; preds = %30
  %34 = trunc i64 %.040.us to i32
  %35 = call zeroext i8 @handleNotification(ptr noundef %0, i32 noundef %2, ptr noundef %3, ptr noundef %12, i32 noundef %34, i8 zeroext poison, ptr noundef nonnull %8)
  %.not49.us = icmp eq i8 %35, 0
  br i1 %.not49.us, label %36, label %.split61.us

36:                                               ; preds = %33
  store ptr %12, ptr %9, align 16
  store i64 %16, ptr %17, align 8
  store ptr %11, ptr %20, align 16
  store i64 48, ptr %21, align 8
  %.pre = load i32, ptr %22, align 16
  br label %37

37:                                               ; preds = %36, %30
  %38 = phi i32 [ %.pre, %36 ], [ %31, %30 ]
  %39 = and i32 %38, 32768
  %.not50.us = icmp eq i32 %39, 0
  br i1 %.not50.us, label %.split67.us, label %.split.us, !llvm.loop !9

.split:                                           ; preds = %7, %72
  %40 = call i64 @recvmsg(i32 noundef %2, ptr noundef nonnull %10, i32 noundef %14) #11
  %41 = icmp slt i64 %40, 0
  br i1 %41, label %42, label %47

42:                                               ; preds = %.split
  %43 = tail call ptr @__errno_location() #12
  %44 = load i32, ptr %43, align 4
  switch i32 %44, label %.split59.us [
    i32 11, label %.split61.us.loopexit129
    i32 4, label %.split61.us
    i32 107, label %45
  ]

45:                                               ; preds = %42
  store i64 0, ptr %21, align 8
  br label %47

.split59.us:                                      ; preds = %26, %42
  %.us-phi = phi i32 [ %44, %42 ], [ %28, %26 ]
  %46 = call i32 @sctpHandleSocketError(ptr noundef %0, i32 noundef %.us-phi) #11
  br label %.split61.us

47:                                               ; preds = %45, %.split
  %.040 = phi i64 [ 0, %45 ], [ %40, %.split ]
  %48 = load i32, ptr %22, align 16
  %49 = and i32 %48, 32768
  %.not = icmp eq i32 %49, 0
  br i1 %.not, label %72, label %50

50:                                               ; preds = %47
  %51 = and i32 %48, 128
  %.not48 = icmp eq i32 %51, 0
  br i1 %.not48, label %52, label %.thread

52:                                               ; preds = %50
  %53 = call noalias dereferenceable_or_null(148) ptr @malloc(i64 noundef 148) #13
  %54 = icmp eq ptr %53, null
  br i1 %54, label %55, label %56

55:                                               ; preds = %52
  call void @JNU_ThrowOutOfMemoryError(ptr noundef %0, ptr noundef nonnull @.str.17) #11
  br label %.split61.us

56:                                               ; preds = %52
  call void @llvm.memcpy.p0.p0.i64(ptr nonnull align 1 %53, ptr align 8 %12, i64 %.040, i1 false)
  %57 = getelementptr inbounds i8, ptr %53, i64 %.040
  store ptr %57, ptr %9, align 16
  %58 = sub nsw i64 148, %.040
  store i64 %58, ptr %17, align 8
  %59 = call i64 @recvmsg(i32 noundef %2, ptr noundef nonnull %10, i32 noundef %14) #11
  %60 = icmp slt i64 %59, 0
  br i1 %60, label %61, label %65

61:                                               ; preds = %56
  %62 = tail call ptr @__errno_location() #12
  %63 = load i32, ptr %62, align 4
  %64 = call i32 @sctpHandleSocketError(ptr noundef %0, i32 noundef %63) #11
  call void @free(ptr noundef nonnull %53) #11
  br label %.split61.us

65:                                               ; preds = %56
  %sext = shl i64 %.040, 32
  %66 = ashr exact i64 %sext, 32
  %67 = add nsw i64 %59, %66
  %68 = trunc i64 %67 to i32
  %69 = call zeroext i8 @handleNotification(ptr noundef %0, i32 noundef %2, ptr noundef %3, ptr noundef nonnull %53, i32 noundef %68, i8 zeroext poison, ptr noundef nonnull %8)
  %.not49 = icmp eq i8 %69, 0
  call void @free(ptr noundef nonnull %53) #11
  br i1 %.not49, label %.thread96, label %.split61.us

.thread:                                          ; preds = %50
  %70 = trunc i64 %.040 to i32
  %71 = call zeroext i8 @handleNotification(ptr noundef %0, i32 noundef %2, ptr noundef %3, ptr noundef %12, i32 noundef %70, i8 zeroext poison, ptr noundef nonnull %8)
  %.not4993 = icmp eq i8 %71, 0
  br i1 %.not4993, label %.thread96, label %.split61.us

.thread96:                                        ; preds = %65, %.thread
  %.19599 = phi i64 [ %.040, %.thread ], [ %67, %65 ]
  store ptr %12, ptr %9, align 16
  store i64 %16, ptr %17, align 8
  store ptr %11, ptr %20, align 16
  store i64 48, ptr %21, align 8
  %.pre88 = load i32, ptr %22, align 16
  br label %72

72:                                               ; preds = %47, %.thread96
  %73 = phi i32 [ %.pre88, %.thread96 ], [ %48, %47 ]
  %.2 = phi i64 [ %.19599, %.thread96 ], [ %.040, %47 ]
  %74 = and i32 %73, 32768
  %.not50 = icmp eq i32 %74, 0
  br i1 %.not50, label %.split67.us, label %.split, !llvm.loop !9

.split67.us:                                      ; preds = %37, %72
  %.us-phi68 = phi i64 [ %.2, %72 ], [ %.040.us, %37 ]
  %.us-phi69 = phi i32 [ %73, %72 ], [ %38, %37 ]
  %75 = trunc i64 %.us-phi68 to i32
  %76 = trunc i32 %.us-phi69 to i8
  %77 = and i8 %76, -128
  call void @handleMessage(ptr noundef %0, ptr noundef %3, ptr noundef nonnull %10, i32 noundef %75, i8 noundef zeroext %77, ptr noundef nonnull %8)
  br label %.split61.us

.split61.us.loopexit129:                          ; preds = %42
  br label %.split61.us

.split61.us.loopexit135:                          ; preds = %26
  br label %.split61.us

.split61.us:                                      ; preds = %33, %.thread, %65, %26, %42, %.split61.us.loopexit135, %.split61.us.loopexit129, %.split67.us, %61, %55, %.split59.us
  %.0 = phi i32 [ %75, %.split67.us ], [ -1, %55 ], [ 0, %61 ], [ 0, %.split59.us ], [ -3, %42 ], [ -3, %26 ], [ 0, %.thread ], [ 0, %65 ], [ -2, %.split61.us.loopexit129 ], [ 0, %33 ], [ -2, %.split61.us.loopexit135 ]
  ret i32 %.0
}